ARM GAS  C:\Users\Walte\AppData\Local\Temp\cc1ivAyn.s 			page 1


   1              		.cpu cortex-m4
   2              		.arch armv7e-m
   3              		.fpu fpv4-sp-d16
   4              		.eabi_attribute 27, 1
   5              		.eabi_attribute 28, 1
   6              		.eabi_attribute 20, 1
   7              		.eabi_attribute 21, 1
   8              		.eabi_attribute 23, 3
   9              		.eabi_attribute 24, 1
  10              		.eabi_attribute 25, 1
  11              		.eabi_attribute 26, 1
  12              		.eabi_attribute 30, 1
  13              		.eabi_attribute 34, 1
  14              		.eabi_attribute 18, 4
  15              		.file	"gpio_test.c"
  16              		.text
  17              	.Ltext0:
  18              		.cfi_sections	.debug_frame
  19              		.file 1 "Src/gpio_test.c"
  20              		.section	.text.main,"ax",%progbits
  21              		.align	1
  22              		.global	main
  23              		.syntax unified
  24              		.thumb
  25              		.thumb_func
  27              	main:
  28              	.LFB130:
   1:Src/gpio_test.c **** /* USER CODE BEGIN Header */
   2:Src/gpio_test.c **** /**
   3:Src/gpio_test.c ****   ******************************************************************************
   4:Src/gpio_test.c ****   * @file           : main.c
   5:Src/gpio_test.c ****   * @brief          : Main program body
   6:Src/gpio_test.c ****   ******************************************************************************
   7:Src/gpio_test.c ****   * @attention
   8:Src/gpio_test.c ****   *
   9:Src/gpio_test.c ****   * Copyright (c) 2023 STMicroelectronics.
  10:Src/gpio_test.c ****   * All rights reserved.
  11:Src/gpio_test.c ****   *
  12:Src/gpio_test.c ****   * This software is licensed under terms that can be found in the LICENSE file
  13:Src/gpio_test.c ****   * in the root directory of this software component.
  14:Src/gpio_test.c ****   * If no LICENSE file comes with this software, it is provided AS-IS.
  15:Src/gpio_test.c ****   *
  16:Src/gpio_test.c ****   ******************************************************************************
  17:Src/gpio_test.c ****   */
  18:Src/gpio_test.c **** /* USER CODE END Header */
  19:Src/gpio_test.c **** /* Includes ------------------------------------------------------------------*/
  20:Src/gpio_test.c **** #include "main.h"
  21:Src/gpio_test.c **** #include "stm32f407xx.h"
  22:Src/gpio_test.c **** #include "gpio.h"
  23:Src/gpio_test.c **** #include "rcc.h"
  24:Src/gpio_test.c **** #include <stdlib.h>
  25:Src/gpio_test.c **** 
  26:Src/gpio_test.c **** 
  27:Src/gpio_test.c **** /**
  28:Src/gpio_test.c ****   * @brief  The application entry point.
  29:Src/gpio_test.c ****   * @retval int
  30:Src/gpio_test.c ****   */
ARM GAS  C:\Users\Walte\AppData\Local\Temp\cc1ivAyn.s 			page 2


  31:Src/gpio_test.c **** int main(void)
  32:Src/gpio_test.c **** {
  29              		.loc 1 32 1 view -0
  30              		.cfi_startproc
  31              		@ args = 0, pretend = 0, frame = 0
  32              		@ frame_needed = 0, uses_anonymous_args = 0
  33 0000 2DE9F041 		push	{r4, r5, r6, r7, r8, lr}
  34              	.LCFI0:
  35              		.cfi_def_cfa_offset 24
  36              		.cfi_offset 4, -24
  37              		.cfi_offset 5, -20
  38              		.cfi_offset 6, -16
  39              		.cfi_offset 7, -12
  40              		.cfi_offset 8, -8
  41              		.cfi_offset 14, -4
  33:Src/gpio_test.c ****   GPIO_Config *board_LED_Config = malloc(sizeof(GPIO_Config));
  42              		.loc 1 33 3 view .LVU1
  43              		.loc 1 33 35 is_stmt 0 view .LVU2
  44 0004 1820     		movs	r0, #24
  45 0006 FFF7FEFF 		bl	malloc
  46              	.LVL0:
  47 000a 0546     		mov	r5, r0
  48              	.LVL1:
  34:Src/gpio_test.c ****   GPIO_Config *board_Button_Config = malloc(sizeof(GPIO_Config));
  49              		.loc 1 34 3 is_stmt 1 view .LVU3
  50              		.loc 1 34 38 is_stmt 0 view .LVU4
  51 000c 1820     		movs	r0, #24
  52              	.LVL2:
  53              		.loc 1 34 38 view .LVU5
  54 000e FFF7FEFF 		bl	malloc
  55              	.LVL3:
  56 0012 0646     		mov	r6, r0
  57              	.LVL4:
  35:Src/gpio_test.c ****   EXTI_Config *board_Button_EXTI = malloc(sizeof(EXTI_Config));
  58              		.loc 1 35 3 is_stmt 1 view .LVU6
  59              		.loc 1 35 36 is_stmt 0 view .LVU7
  60 0014 0820     		movs	r0, #8
  61              	.LVL5:
  62              		.loc 1 35 36 view .LVU8
  63 0016 FFF7FEFF 		bl	malloc
  64              	.LVL6:
  65 001a 0746     		mov	r7, r0
  66              	.LVL7:
  36:Src/gpio_test.c **** 
  37:Src/gpio_test.c ****   __GPIOD_CLK_ENABLE;
  67              		.loc 1 37 3 is_stmt 1 view .LVU9
  68 001c 1F4B     		ldr	r3, .L4
  69 001e 1A6B     		ldr	r2, [r3, #48]
  70 0020 42F00802 		orr	r2, r2, #8
  71 0024 1A63     		str	r2, [r3, #48]
  38:Src/gpio_test.c ****   __GPIOA_CLK_ENABLE;
  72              		.loc 1 38 3 view .LVU10
  73 0026 1A6B     		ldr	r2, [r3, #48]
  74 0028 42F00102 		orr	r2, r2, #1
  75 002c 1A63     		str	r2, [r3, #48]
  39:Src/gpio_test.c ****   __SYSCFG_CLK_ENABLE;
  76              		.loc 1 39 3 view .LVU11
ARM GAS  C:\Users\Walte\AppData\Local\Temp\cc1ivAyn.s 			page 3


  77 002e 5A6C     		ldr	r2, [r3, #68]
  78 0030 42F48042 		orr	r2, r2, #16384
  79 0034 5A64     		str	r2, [r3, #68]
  40:Src/gpio_test.c **** 
  41:Src/gpio_test.c ****   board_LED_Config->Mode = GPIO_MODE_OUTPUT;
  80              		.loc 1 41 3 view .LVU12
  81              		.loc 1 41 26 is_stmt 0 view .LVU13
  82 0036 0123     		movs	r3, #1
  83 0038 2B60     		str	r3, [r5]
  42:Src/gpio_test.c ****   board_LED_Config->Type = GPIO_TYPE_PP;
  84              		.loc 1 42 3 is_stmt 1 view .LVU14
  85              		.loc 1 42 26 is_stmt 0 view .LVU15
  86 003a 0024     		movs	r4, #0
  87 003c 6C60     		str	r4, [r5, #4]
  43:Src/gpio_test.c ****   board_LED_Config->Speed = GPIO_SPEED_LOW;
  88              		.loc 1 43 3 is_stmt 1 view .LVU16
  89              		.loc 1 43 27 is_stmt 0 view .LVU17
  90 003e AC60     		str	r4, [r5, #8]
  44:Src/gpio_test.c ****   board_LED_Config->PUPD = GPIO_PUPD_NONE;
  91              		.loc 1 44 3 is_stmt 1 view .LVU18
  92              		.loc 1 44 26 is_stmt 0 view .LVU19
  93 0040 EC60     		str	r4, [r5, #12]
  45:Src/gpio_test.c ****   board_LED_Config->LOCK = GPIO_LOCK_OFF;
  94              		.loc 1 45 3 is_stmt 1 view .LVU20
  95              		.loc 1 45 26 is_stmt 0 view .LVU21
  96 0042 2C61     		str	r4, [r5, #16]
  46:Src/gpio_test.c ****   board_LED_Config->ALT = GPIO_ALT_AF0;
  97              		.loc 1 46 3 is_stmt 1 view .LVU22
  98              		.loc 1 46 25 is_stmt 0 view .LVU23
  99 0044 6C61     		str	r4, [r5, #20]
  47:Src/gpio_test.c **** 
  48:Src/gpio_test.c ****   board_Button_Config->Mode = GPIO_MODE_INPUT;
 100              		.loc 1 48 3 is_stmt 1 view .LVU24
 101              		.loc 1 48 29 is_stmt 0 view .LVU25
 102 0046 3460     		str	r4, [r6]
  49:Src/gpio_test.c ****   board_Button_Config->Type = GPIO_TYPE_PP;
 103              		.loc 1 49 3 is_stmt 1 view .LVU26
 104              		.loc 1 49 29 is_stmt 0 view .LVU27
 105 0048 7460     		str	r4, [r6, #4]
  50:Src/gpio_test.c ****   board_Button_Config->Speed = GPIO_SPEED_LOW;
 106              		.loc 1 50 3 is_stmt 1 view .LVU28
 107              		.loc 1 50 30 is_stmt 0 view .LVU29
 108 004a B460     		str	r4, [r6, #8]
  51:Src/gpio_test.c ****   board_Button_Config->PUPD = GPIO_PUPD_NONE;
 109              		.loc 1 51 3 is_stmt 1 view .LVU30
 110              		.loc 1 51 29 is_stmt 0 view .LVU31
 111 004c F460     		str	r4, [r6, #12]
  52:Src/gpio_test.c ****   board_Button_Config->LOCK = GPIO_LOCK_OFF;
 112              		.loc 1 52 3 is_stmt 1 view .LVU32
 113              		.loc 1 52 29 is_stmt 0 view .LVU33
 114 004e 3461     		str	r4, [r6, #16]
  53:Src/gpio_test.c ****   board_Button_Config->ALT = GPIO_ALT_AF0;
 115              		.loc 1 53 3 is_stmt 1 view .LVU34
 116              		.loc 1 53 28 is_stmt 0 view .LVU35
 117 0050 7461     		str	r4, [r6, #20]
  54:Src/gpio_test.c **** 
  55:Src/gpio_test.c ****   board_Button_EXTI->Mode = EXTI_MODE_INTERUPT;
ARM GAS  C:\Users\Walte\AppData\Local\Temp\cc1ivAyn.s 			page 4


 118              		.loc 1 55 3 is_stmt 1 view .LVU36
 119              		.loc 1 55 27 is_stmt 0 view .LVU37
 120 0052 0460     		str	r4, [r0]
  56:Src/gpio_test.c ****   board_Button_EXTI->Trigger = EXTI_TRIGGER_FALLING;
 121              		.loc 1 56 3 is_stmt 1 view .LVU38
 122              		.loc 1 56 30 is_stmt 0 view .LVU39
 123 0054 4360     		str	r3, [r0, #4]
  57:Src/gpio_test.c **** 
  58:Src/gpio_test.c ****   GPIO_Init(BOARD_LED_Port, BOARD_GREEN_LED_Pin, board_LED_Config);
 124              		.loc 1 58 3 is_stmt 1 view .LVU40
 125 0056 DFF84C80 		ldr	r8, .L4+8
 126 005a 2A46     		mov	r2, r5
 127 005c 0C21     		movs	r1, #12
 128 005e 4046     		mov	r0, r8
 129              	.LVL8:
 130              		.loc 1 58 3 is_stmt 0 view .LVU41
 131 0060 FFF7FEFF 		bl	GPIO_Init
 132              	.LVL9:
  59:Src/gpio_test.c ****   GPIO_Init(BOARD_LED_Port, BOARD_ORANGE_LED_Pin, board_LED_Config);
 133              		.loc 1 59 3 is_stmt 1 view .LVU42
 134 0064 2A46     		mov	r2, r5
 135 0066 0D21     		movs	r1, #13
 136 0068 4046     		mov	r0, r8
 137 006a FFF7FEFF 		bl	GPIO_Init
 138              	.LVL10:
  60:Src/gpio_test.c ****   GPIO_Init(BOARD_LED_Port, BOARD_RED_LED_Pin, board_LED_Config);
 139              		.loc 1 60 3 view .LVU43
 140 006e 2A46     		mov	r2, r5
 141 0070 0E21     		movs	r1, #14
 142 0072 4046     		mov	r0, r8
 143 0074 FFF7FEFF 		bl	GPIO_Init
 144              	.LVL11:
  61:Src/gpio_test.c ****   GPIO_Init(BOARD_LED_Port, BOARD_BLUE_LED_Pin, board_LED_Config);
 145              		.loc 1 61 3 view .LVU44
 146 0078 2A46     		mov	r2, r5
 147 007a 0F21     		movs	r1, #15
 148 007c 4046     		mov	r0, r8
 149 007e FFF7FEFF 		bl	GPIO_Init
 150              	.LVL12:
  62:Src/gpio_test.c **** 
  63:Src/gpio_test.c ****   GPIO_Init(BOARD_B1_Port, BOARD_USER_B1_Pin, board_Button_Config);
 151              		.loc 1 63 3 view .LVU45
 152 0082 074D     		ldr	r5, .L4+4
 153              	.LVL13:
 154              		.loc 1 63 3 is_stmt 0 view .LVU46
 155 0084 3246     		mov	r2, r6
 156 0086 2146     		mov	r1, r4
 157 0088 2846     		mov	r0, r5
 158 008a FFF7FEFF 		bl	GPIO_Init
 159              	.LVL14:
  64:Src/gpio_test.c ****   GPIO_InteruptEnable(BOARD_B1_Port, BOARD_USER_B1_Pin, board_Button_EXTI);
 160              		.loc 1 64 3 is_stmt 1 view .LVU47
 161 008e 3A46     		mov	r2, r7
 162 0090 2146     		mov	r1, r4
 163 0092 2846     		mov	r0, r5
 164 0094 FFF7FEFF 		bl	GPIO_InteruptEnable
 165              	.LVL15:
ARM GAS  C:\Users\Walte\AppData\Local\Temp\cc1ivAyn.s 			page 5


 166              	.L2:
  65:Src/gpio_test.c **** 
  66:Src/gpio_test.c **** 
  67:Src/gpio_test.c ****   while (1)
 167              		.loc 1 67 3 discriminator 1 view .LVU48
  68:Src/gpio_test.c ****   {
  69:Src/gpio_test.c ****     int sum = 1 + 1;
 168              		.loc 1 69 5 discriminator 1 view .LVU49
  67:Src/gpio_test.c ****   {
 169              		.loc 1 67 9 discriminator 1 view .LVU50
 170 0098 FEE7     		b	.L2
 171              	.L5:
 172 009a 00BF     		.align	2
 173              	.L4:
 174 009c 00380240 		.word	1073887232
 175 00a0 00000240 		.word	1073872896
 176 00a4 000C0240 		.word	1073875968
 177              		.cfi_endproc
 178              	.LFE130:
 180              		.section	.text.EXTI0_IRQHandler,"ax",%progbits
 181              		.align	1
 182              		.global	EXTI0_IRQHandler
 183              		.syntax unified
 184              		.thumb
 185              		.thumb_func
 187              	EXTI0_IRQHandler:
 188              	.LFB131:
  70:Src/gpio_test.c ****   }
  71:Src/gpio_test.c **** }
  72:Src/gpio_test.c **** 
  73:Src/gpio_test.c **** void EXTI0_IRQHandler(void)
  74:Src/gpio_test.c **** {
 189              		.loc 1 74 1 view -0
 190              		.cfi_startproc
 191              		@ args = 0, pretend = 0, frame = 0
 192              		@ frame_needed = 0, uses_anonymous_args = 0
 193 0000 08B5     		push	{r3, lr}
 194              	.LCFI1:
 195              		.cfi_def_cfa_offset 8
 196              		.cfi_offset 3, -8
 197              		.cfi_offset 14, -4
  75:Src/gpio_test.c ****   
  76:Src/gpio_test.c ****   GPIO_Toggle(BOARD_LED_Port, BOARD_GREEN_LED_Pin);
 198              		.loc 1 76 3 view .LVU52
 199 0002 0C21     		movs	r1, #12
 200 0004 1648     		ldr	r0, .L16
 201 0006 FFF7FEFF 		bl	GPIO_Toggle
 202              	.LVL16:
  77:Src/gpio_test.c ****   for(int i = 0; i < 100000; i++);
 203              		.loc 1 77 3 view .LVU53
 204              	.LBB2:
 205              		.loc 1 77 7 view .LVU54
 206              		.loc 1 77 11 is_stmt 0 view .LVU55
 207 000a 0023     		movs	r3, #0
 208              		.loc 1 77 3 view .LVU56
 209 000c 00E0     		b	.L7
 210              	.LVL17:
ARM GAS  C:\Users\Walte\AppData\Local\Temp\cc1ivAyn.s 			page 6


 211              	.L8:
 212              		.loc 1 77 31 is_stmt 1 discriminator 3 view .LVU57
 213 000e 0133     		adds	r3, r3, #1
 214              	.LVL18:
 215              	.L7:
 216              		.loc 1 77 20 discriminator 1 view .LVU58
 217 0010 144A     		ldr	r2, .L16+4
 218 0012 9342     		cmp	r3, r2
 219 0014 FBDD     		ble	.L8
 220              	.LBE2:
  78:Src/gpio_test.c ****   GPIO_Toggle(BOARD_LED_Port, BOARD_ORANGE_LED_Pin);
 221              		.loc 1 78 3 view .LVU59
 222 0016 0D21     		movs	r1, #13
 223 0018 1148     		ldr	r0, .L16
 224 001a FFF7FEFF 		bl	GPIO_Toggle
 225              	.LVL19:
  79:Src/gpio_test.c ****   for(int i = 0; i < 100000; i++);
 226              		.loc 1 79 3 view .LVU60
 227              	.LBB3:
 228              		.loc 1 79 7 view .LVU61
 229              		.loc 1 79 11 is_stmt 0 view .LVU62
 230 001e 0023     		movs	r3, #0
 231              		.loc 1 79 3 view .LVU63
 232 0020 00E0     		b	.L9
 233              	.LVL20:
 234              	.L10:
 235              		.loc 1 79 31 is_stmt 1 discriminator 3 view .LVU64
 236 0022 0133     		adds	r3, r3, #1
 237              	.LVL21:
 238              	.L9:
 239              		.loc 1 79 20 discriminator 1 view .LVU65
 240 0024 0F4A     		ldr	r2, .L16+4
 241 0026 9342     		cmp	r3, r2
 242 0028 FBDD     		ble	.L10
 243              	.LBE3:
  80:Src/gpio_test.c ****   GPIO_Toggle(BOARD_LED_Port, BOARD_RED_LED_Pin);
 244              		.loc 1 80 3 view .LVU66
 245 002a 0E21     		movs	r1, #14
 246 002c 0C48     		ldr	r0, .L16
 247 002e FFF7FEFF 		bl	GPIO_Toggle
 248              	.LVL22:
  81:Src/gpio_test.c ****   for(int i = 0; i < 100000; i++);
 249              		.loc 1 81 3 view .LVU67
 250              	.LBB4:
 251              		.loc 1 81 7 view .LVU68
 252              		.loc 1 81 11 is_stmt 0 view .LVU69
 253 0032 0023     		movs	r3, #0
 254              		.loc 1 81 3 view .LVU70
 255 0034 00E0     		b	.L11
 256              	.LVL23:
 257              	.L12:
 258              		.loc 1 81 31 is_stmt 1 discriminator 3 view .LVU71
 259 0036 0133     		adds	r3, r3, #1
 260              	.LVL24:
 261              	.L11:
 262              		.loc 1 81 20 discriminator 1 view .LVU72
 263 0038 0A4A     		ldr	r2, .L16+4
ARM GAS  C:\Users\Walte\AppData\Local\Temp\cc1ivAyn.s 			page 7


 264 003a 9342     		cmp	r3, r2
 265 003c FBDD     		ble	.L12
 266              	.LBE4:
  82:Src/gpio_test.c ****   GPIO_Toggle(BOARD_LED_Port, BOARD_BLUE_LED_Pin);
 267              		.loc 1 82 3 view .LVU73
 268 003e 0F21     		movs	r1, #15
 269 0040 0748     		ldr	r0, .L16
 270 0042 FFF7FEFF 		bl	GPIO_Toggle
 271              	.LVL25:
  83:Src/gpio_test.c ****   for(int i = 0; i < 100000; i++);
 272              		.loc 1 83 3 view .LVU74
 273              	.LBB5:
 274              		.loc 1 83 7 view .LVU75
 275              		.loc 1 83 11 is_stmt 0 view .LVU76
 276 0046 0023     		movs	r3, #0
 277              		.loc 1 83 3 view .LVU77
 278 0048 00E0     		b	.L13
 279              	.LVL26:
 280              	.L14:
 281              		.loc 1 83 31 is_stmt 1 discriminator 3 view .LVU78
 282 004a 0133     		adds	r3, r3, #1
 283              	.LVL27:
 284              	.L13:
 285              		.loc 1 83 20 discriminator 1 view .LVU79
 286 004c 054A     		ldr	r2, .L16+4
 287 004e 9342     		cmp	r3, r2
 288 0050 FBDD     		ble	.L14
 289              	.LBE5:
  84:Src/gpio_test.c ****   EXTI->PR |= (1 << 0);
 290              		.loc 1 84 3 view .LVU80
 291              		.loc 1 84 7 is_stmt 0 view .LVU81
 292 0052 054A     		ldr	r2, .L16+8
 293 0054 5369     		ldr	r3, [r2, #20]
 294              	.LVL28:
 295              		.loc 1 84 12 view .LVU82
 296 0056 43F00103 		orr	r3, r3, #1
 297 005a 5361     		str	r3, [r2, #20]
  85:Src/gpio_test.c **** }
 298              		.loc 1 85 1 view .LVU83
 299 005c 08BD     		pop	{r3, pc}
 300              	.L17:
 301 005e 00BF     		.align	2
 302              	.L16:
 303 0060 000C0240 		.word	1073875968
 304 0064 9F860100 		.word	99999
 305 0068 003C0140 		.word	1073822720
 306              		.cfi_endproc
 307              	.LFE131:
 309              		.text
 310              	.Letext0:
 311              		.file 2 "c:\\users\\walte\\tools\\arm-gnu-toolchain-12.2.rel1-mingw-w64-i686-arm-none-eabi\\arm-no
 312              		.file 3 "c:\\users\\walte\\tools\\arm-gnu-toolchain-12.2.rel1-mingw-w64-i686-arm-none-eabi\\arm-no
 313              		.file 4 "Drivers/CMSIS/Device/ST/STM32F4xx/Include/stm32f407xx.h"
 314              		.file 5 "Inc/exti.h"
 315              		.file 6 "Inc/gpio.h"
 316              		.file 7 "c:\\users\\walte\\tools\\arm-gnu-toolchain-12.2.rel1-mingw-w64-i686-arm-none-eabi\\lib\\g
 317              		.file 8 "c:\\users\\walte\\tools\\arm-gnu-toolchain-12.2.rel1-mingw-w64-i686-arm-none-eabi\\arm-no
ARM GAS  C:\Users\Walte\AppData\Local\Temp\cc1ivAyn.s 			page 8


ARM GAS  C:\Users\Walte\AppData\Local\Temp\cc1ivAyn.s 			page 9

