ARM GAS  C:\Users\Walter\AppData\Local\Temp\cc88U5cH.s 			page 1


   1              		.cpu cortex-m4
   2              		.arch armv7e-m
   3              		.fpu fpv4-sp-d16
   4              		.eabi_attribute 27, 1
   5              		.eabi_attribute 28, 1
   6              		.eabi_attribute 20, 1
   7              		.eabi_attribute 21, 1
   8              		.eabi_attribute 23, 3
   9              		.eabi_attribute 24, 1
  10              		.eabi_attribute 25, 1
  11              		.eabi_attribute 26, 1
  12              		.eabi_attribute 30, 1
  13              		.eabi_attribute 34, 1
  14              		.eabi_attribute 18, 4
  15              		.file	"gpio_test.c"
  16              		.text
  17              	.Ltext0:
  18              		.cfi_sections	.debug_frame
  19              		.file 1 "Src/gpio_test.c"
  20              		.section	.text.main,"ax",%progbits
  21              		.align	1
  22              		.global	main
  23              		.syntax unified
  24              		.thumb
  25              		.thumb_func
  27              	main:
  28              	.LFB130:
   1:Src/gpio_test.c **** /* USER CODE BEGIN Header */
   2:Src/gpio_test.c **** /**
   3:Src/gpio_test.c ****   ******************************************************************************
   4:Src/gpio_test.c ****   * @file           : main.c
   5:Src/gpio_test.c ****   * @brief          : Main program body
   6:Src/gpio_test.c ****   ******************************************************************************
   7:Src/gpio_test.c ****   * @attention
   8:Src/gpio_test.c ****   *
   9:Src/gpio_test.c ****   * Copyright (c) 2023 STMicroelectronics.
  10:Src/gpio_test.c ****   * All rights reserved.
  11:Src/gpio_test.c ****   *
  12:Src/gpio_test.c ****   * This software is licensed under terms that can be found in the LICENSE file
  13:Src/gpio_test.c ****   * in the root directory of this software component.
  14:Src/gpio_test.c ****   * If no LICENSE file comes with this software, it is provided AS-IS.
  15:Src/gpio_test.c ****   *
  16:Src/gpio_test.c ****   ******************************************************************************
  17:Src/gpio_test.c ****   */
  18:Src/gpio_test.c **** /* USER CODE END Header */
  19:Src/gpio_test.c **** /* Includes ------------------------------------------------------------------*/
  20:Src/gpio_test.c **** #include "main.h"
  21:Src/gpio_test.c **** #include "stm32f407xx.h"
  22:Src/gpio_test.c **** #include "gpio.h"
  23:Src/gpio_test.c **** #include "rcc.h"
  24:Src/gpio_test.c **** #include <stdlib.h>
  25:Src/gpio_test.c **** /* Private includes ----------------------------------------------------------*/
  26:Src/gpio_test.c **** /* USER CODE BEGIN Includes */
  27:Src/gpio_test.c **** 
  28:Src/gpio_test.c **** /* USER CODE END Includes */
  29:Src/gpio_test.c **** 
  30:Src/gpio_test.c **** /* Private typedef -----------------------------------------------------------*/
ARM GAS  C:\Users\Walter\AppData\Local\Temp\cc88U5cH.s 			page 2


  31:Src/gpio_test.c **** /* USER CODE BEGIN PTD */
  32:Src/gpio_test.c **** 
  33:Src/gpio_test.c **** /* USER CODE END PTD */
  34:Src/gpio_test.c **** 
  35:Src/gpio_test.c **** /* Private define ------------------------------------------------------------*/
  36:Src/gpio_test.c **** /* USER CODE BEGIN PD */
  37:Src/gpio_test.c **** /* USER CODE END PD */
  38:Src/gpio_test.c **** 
  39:Src/gpio_test.c **** /* Private macro -------------------------------------------------------------*/
  40:Src/gpio_test.c **** /* USER CODE BEGIN PM */
  41:Src/gpio_test.c **** 
  42:Src/gpio_test.c **** /* USER CODE END PM */
  43:Src/gpio_test.c **** 
  44:Src/gpio_test.c **** /* Private variables ---------------------------------------------------------*/
  45:Src/gpio_test.c **** 
  46:Src/gpio_test.c **** /* USER CODE BEGIN PV */
  47:Src/gpio_test.c **** 
  48:Src/gpio_test.c **** /* USER CODE END PV */
  49:Src/gpio_test.c **** 
  50:Src/gpio_test.c **** /* Private function prototypes -----------------------------------------------*/
  51:Src/gpio_test.c **** /* USER CODE BEGIN PFP */
  52:Src/gpio_test.c **** 
  53:Src/gpio_test.c **** /* USER CODE END PFP */
  54:Src/gpio_test.c **** 
  55:Src/gpio_test.c **** /* Private user code ---------------------------------------------------------*/
  56:Src/gpio_test.c **** /* USER CODE BEGIN 0 */
  57:Src/gpio_test.c **** 
  58:Src/gpio_test.c **** /* USER CODE END 0 */
  59:Src/gpio_test.c **** 
  60:Src/gpio_test.c **** /**
  61:Src/gpio_test.c ****   * @brief  The application entry point.
  62:Src/gpio_test.c ****   * @retval int
  63:Src/gpio_test.c ****   */
  64:Src/gpio_test.c **** int main(void)
  65:Src/gpio_test.c **** {
  29              		.loc 1 65 1 view -0
  30              		.cfi_startproc
  31              		@ args = 0, pretend = 0, frame = 0
  32              		@ frame_needed = 0, uses_anonymous_args = 0
  33 0000 70B5     		push	{r4, r5, r6, lr}
  34              	.LCFI0:
  35              		.cfi_def_cfa_offset 16
  36              		.cfi_offset 4, -16
  37              		.cfi_offset 5, -12
  38              		.cfi_offset 6, -8
  39              		.cfi_offset 14, -4
  66:Src/gpio_test.c ****   __GPIOD_CLK_ENABLE;
  40              		.loc 1 66 3 view .LVU1
  41 0002 1D4A     		ldr	r2, .L4
  42 0004 136B     		ldr	r3, [r2, #48]
  43 0006 43F00803 		orr	r3, r3, #8
  44 000a 1363     		str	r3, [r2, #48]
  67:Src/gpio_test.c ****   GPIO_Config *board_LED_Config = malloc(sizeof(GPIO_Config));
  45              		.loc 1 67 3 view .LVU2
  46              		.loc 1 67 35 is_stmt 0 view .LVU3
  47 000c 1820     		movs	r0, #24
  48 000e FFF7FEFF 		bl	malloc
ARM GAS  C:\Users\Walter\AppData\Local\Temp\cc88U5cH.s 			page 3


  49              	.LVL0:
  50 0012 0446     		mov	r4, r0
  51              	.LVL1:
  68:Src/gpio_test.c **** 
  69:Src/gpio_test.c ****   board_LED_Config->Mode = GPIO_MODE_OUTPUT;
  52              		.loc 1 69 3 is_stmt 1 view .LVU4
  53              		.loc 1 69 26 is_stmt 0 view .LVU5
  54 0014 0126     		movs	r6, #1
  55 0016 0660     		str	r6, [r0]
  70:Src/gpio_test.c ****   board_LED_Config->Type = GPIO_TYPE_PP;
  56              		.loc 1 70 3 is_stmt 1 view .LVU6
  57              		.loc 1 70 26 is_stmt 0 view .LVU7
  58 0018 0023     		movs	r3, #0
  59 001a 4360     		str	r3, [r0, #4]
  71:Src/gpio_test.c ****   board_LED_Config->Speed = GPIO_SPEED_LOW;
  60              		.loc 1 71 3 is_stmt 1 view .LVU8
  61              		.loc 1 71 27 is_stmt 0 view .LVU9
  62 001c 8360     		str	r3, [r0, #8]
  72:Src/gpio_test.c ****   board_LED_Config->PUPD = GPIO_PUPD_NONE;
  63              		.loc 1 72 3 is_stmt 1 view .LVU10
  64              		.loc 1 72 26 is_stmt 0 view .LVU11
  65 001e C360     		str	r3, [r0, #12]
  73:Src/gpio_test.c ****   board_LED_Config->LOCK = GPIO_LOCK_OFF;
  66              		.loc 1 73 3 is_stmt 1 view .LVU12
  67              		.loc 1 73 26 is_stmt 0 view .LVU13
  68 0020 0361     		str	r3, [r0, #16]
  74:Src/gpio_test.c ****   board_LED_Config->ALT = GPIO_ALT_AF0;
  69              		.loc 1 74 3 is_stmt 1 view .LVU14
  70              		.loc 1 74 25 is_stmt 0 view .LVU15
  71 0022 4361     		str	r3, [r0, #20]
  75:Src/gpio_test.c ****   
  76:Src/gpio_test.c ****   GPIO_Init(BOARD_LED_Port, GREEN_LED_Pin, board_LED_Config);
  72              		.loc 1 76 3 is_stmt 1 view .LVU16
  73 0024 154D     		ldr	r5, .L4+4
  74 0026 0246     		mov	r2, r0
  75 0028 0C21     		movs	r1, #12
  76 002a 2846     		mov	r0, r5
  77              	.LVL2:
  78              		.loc 1 76 3 is_stmt 0 view .LVU17
  79 002c FFF7FEFF 		bl	GPIO_Init
  80              	.LVL3:
  77:Src/gpio_test.c ****   GPIO_Init(BOARD_LED_Port, ORANGE_LED_Pin, board_LED_Config);
  81              		.loc 1 77 3 is_stmt 1 view .LVU18
  82 0030 2246     		mov	r2, r4
  83 0032 0D21     		movs	r1, #13
  84 0034 2846     		mov	r0, r5
  85 0036 FFF7FEFF 		bl	GPIO_Init
  86              	.LVL4:
  78:Src/gpio_test.c ****   GPIO_Init(BOARD_LED_Port, RED_LED_Pin, board_LED_Config);
  87              		.loc 1 78 3 view .LVU19
  88 003a 2246     		mov	r2, r4
  89 003c 0E21     		movs	r1, #14
  90 003e 2846     		mov	r0, r5
  91 0040 FFF7FEFF 		bl	GPIO_Init
  92              	.LVL5:
  79:Src/gpio_test.c ****   GPIO_Init(BOARD_LED_Port, BLUE_LED_Pin, board_LED_Config);
  93              		.loc 1 79 3 view .LVU20
ARM GAS  C:\Users\Walter\AppData\Local\Temp\cc88U5cH.s 			page 4


  94 0044 2246     		mov	r2, r4
  95 0046 0F21     		movs	r1, #15
  96 0048 2846     		mov	r0, r5
  97 004a FFF7FEFF 		bl	GPIO_Init
  98              	.LVL6:
  80:Src/gpio_test.c **** 
  81:Src/gpio_test.c ****   GPIO_Write(BOARD_LED_Port, GREEN_LED_Pin, GPIO_PIN_ON);
  99              		.loc 1 81 3 view .LVU21
 100 004e 3246     		mov	r2, r6
 101 0050 0C21     		movs	r1, #12
 102 0052 2846     		mov	r0, r5
 103 0054 FFF7FEFF 		bl	GPIO_Write
 104              	.LVL7:
  82:Src/gpio_test.c ****   GPIO_Write(BOARD_LED_Port, ORANGE_LED_Pin, GPIO_PIN_ON);
 105              		.loc 1 82 3 view .LVU22
 106 0058 3246     		mov	r2, r6
 107 005a 0D21     		movs	r1, #13
 108 005c 2846     		mov	r0, r5
 109 005e FFF7FEFF 		bl	GPIO_Write
 110              	.LVL8:
  83:Src/gpio_test.c ****   GPIO_Write(BOARD_LED_Port, RED_LED_Pin, GPIO_PIN_ON);
 111              		.loc 1 83 3 view .LVU23
 112 0062 3246     		mov	r2, r6
 113 0064 0E21     		movs	r1, #14
 114 0066 2846     		mov	r0, r5
 115 0068 FFF7FEFF 		bl	GPIO_Write
 116              	.LVL9:
  84:Src/gpio_test.c ****   GPIO_Write(BOARD_LED_Port, BLUE_LED_Pin, GPIO_PIN_ON);
 117              		.loc 1 84 3 view .LVU24
 118 006c 3246     		mov	r2, r6
 119 006e 0F21     		movs	r1, #15
 120 0070 2846     		mov	r0, r5
 121 0072 FFF7FEFF 		bl	GPIO_Write
 122              	.LVL10:
 123              	.L2:
  85:Src/gpio_test.c **** 
  86:Src/gpio_test.c ****   while (1)
 124              		.loc 1 86 3 discriminator 1 view .LVU25
  87:Src/gpio_test.c ****   {
  88:Src/gpio_test.c **** 
  89:Src/gpio_test.c ****   }
 125              		.loc 1 89 3 discriminator 1 view .LVU26
  86:Src/gpio_test.c ****   {
 126              		.loc 1 86 9 discriminator 1 view .LVU27
 127 0076 FEE7     		b	.L2
 128              	.L5:
 129              		.align	2
 130              	.L4:
 131 0078 00380240 		.word	1073887232
 132 007c 000C0240 		.word	1073875968
 133              		.cfi_endproc
 134              	.LFE130:
 136              		.text
 137              	.Letext0:
 138              		.file 2 "c:\\users\\walter\\toolchains\\arm-gnu-toolchain-12.2.rel1-mingw-w64-i686-arm-none-eabi\\
 139              		.file 3 "c:\\users\\walter\\toolchains\\arm-gnu-toolchain-12.2.rel1-mingw-w64-i686-arm-none-eabi\\
 140              		.file 4 "Drivers/CMSIS/Device/ST/STM32F4xx/Include/stm32f407xx.h"
ARM GAS  C:\Users\Walter\AppData\Local\Temp\cc88U5cH.s 			page 5


 141              		.file 5 "Inc/gpio.h"
 142              		.file 6 "c:\\users\\walter\\toolchains\\arm-gnu-toolchain-12.2.rel1-mingw-w64-i686-arm-none-eabi\\
 143              		.file 7 "c:\\users\\walter\\toolchains\\arm-gnu-toolchain-12.2.rel1-mingw-w64-i686-arm-none-eabi\\
ARM GAS  C:\Users\Walter\AppData\Local\Temp\cc88U5cH.s 			page 6


DEFINED SYMBOLS
                            *ABS*:00000000 gpio_test.c
C:\Users\Walter\AppData\Local\Temp\cc88U5cH.s:21     .text.main:00000000 $t
C:\Users\Walter\AppData\Local\Temp\cc88U5cH.s:27     .text.main:00000000 main
C:\Users\Walter\AppData\Local\Temp\cc88U5cH.s:131    .text.main:00000078 $d

UNDEFINED SYMBOLS
malloc
GPIO_Init
GPIO_Write
